; Function Attrs: mustprogress uwtable
define void @_ZNK32pxrInternal_v0_24__pxrReserved__29HdFlattenedDataSourceProvider7Context36GetFlattenedDataSourceFromParentPrimEv(ptr dead_on_unwind noalias writable writeonly sret(%"class.std::shared_ptr") align 8 captures(none) %0, ptr noundef nonnull readonly align 8 captures(none) dereferenceable(32) %1) local_unnamed_addr #0 align 2 personality ptr @__gxx_personality_v0 {
  %3 = alloca %"struct.pxrInternal_v0_24__pxrReserved__::HdSceneIndexPrim", align 8
  %4 = alloca %"class.pxrInternal_v0_24__pxrReserved__::SdfPath", align 4
  %5 = getelementptr inbounds nuw i8, ptr %1, i64 8
  %6 = load ptr, ptr %5, align 8
  %7 = tail call noundef zeroext i1 @_ZNK32pxrInternal_v0_24__pxrReserved__7SdfPath18IsAbsoluteRootPathEv(ptr noundef nonnull align 4 dereferenceable(8) %6)
  br i1 %7, label %8, label %9

8:                                                ; preds = %2
  tail call void @llvm.memset.p0.i64(ptr noundef nonnull align 8 dereferenceable(16) %0, i8 0, i64 16, i1 false)
  br label %_ZN32pxrInternal_v0_24__pxrReserved__7SdfPathD2Ev.exit

9:                                                ; preds = %2
  %10 = load ptr, ptr %1, align 8
  %11 = load ptr, ptr %5, align 8
  call void @_ZNK32pxrInternal_v0_24__pxrReserved__7SdfPath13GetParentPathEv(ptr dead_on_unwind nonnull writable sret(%"class.pxrInternal_v0_24__pxrReserved__::SdfPath") align 4 %4, ptr noundef nonnull align 4 dereferenceable(8) %11)
  %12 = load ptr, ptr %10, align 8
  %13 = getelementptr inbounds nuw i8, ptr %12, i64 16
  %14 = load ptr, ptr %13, align 8
  invoke void %14(ptr dead_on_unwind nonnull writable sret(%"struct.pxrInternal_v0_24__pxrReserved__::HdSceneIndexPrim") align 8 %3, ptr noundef nonnull align 8 dereferenceable(120) %10, ptr noundef nonnull align 4 dereferenceable(8) %4)
          to label %15 unwind label %81

15:                                               ; preds = %9
  %16 = getelementptr inbounds nuw i8, ptr %3, i64 8
  %17 = getelementptr inbounds nuw i8, ptr %1, i64 16
  %18 = load ptr, ptr %17, align 8
  %.val = load ptr, ptr %16, align 8
  invoke fastcc void @_ZN32pxrInternal_v0_24__pxrReserved__L4_GetERKSt10shared_ptrINS_21HdContainerDataSourceEERKNS_7TfTokenE(ptr dead_on_unwind noalias writable align 8 %0, ptr %.val, ptr noundef nonnull align 8 dereferenceable(8) %18)
          to label %19 unwind label %83

19:                                               ; preds = %15
  %20 = getelementptr inbounds nuw i8, ptr %3, i64 16
  %21 = load ptr, ptr %20, align 8
  %.not.i.i.i.i = icmp eq ptr %21, null
  br i1 %.not.i.i.i.i, label %_ZNSt10shared_ptrIN32pxrInternal_v0_24__pxrReserved__21HdContainerDataSourceEED2Ev.exit.i, label %22

22:                                               ; preds = %19
  %23 = getelementptr inbounds nuw i8, ptr %21, i64 8
  %24 = load atomic i64, ptr %23 acquire, align 8
  %25 = icmp eq i64 %24, 4294967297
  %26 = trunc i64 %24 to i32
  br i1 %25, label %27, label %32

27:                                               ; preds = %22
  store i32 0, ptr %23, align 8
  %28 = getelementptr inbounds nuw i8, ptr %21, i64 12
  store i32 0, ptr %28, align 4
  %29 = load ptr, ptr %21, align 8
  %30 = getelementptr inbounds nuw i8, ptr %29, i64 16
  %31 = load ptr, ptr %30, align 8
  call void %31(ptr noundef nonnull align 8 dereferenceable(16) %21) #12
  br label %_ZNSt16_Sp_counted_baseILN9__gnu_cxx12_Lock_policyE2EE24_M_release_last_use_coldEv.exit.sink.split.i.i.i.i.i

32:                                               ; preds = %22
  %33 = load i8, ptr @__libc_single_threaded, align 1
  %.not.i.i.i.i.i = icmp eq i8 %33, 0
  br i1 %.not.i.i.i.i.i, label %36, label %34

34:                                               ; preds = %32
  %35 = add nsw i32 %26, -1
  store i32 %35, ptr %23, align 4
  br label %38

36:                                               ; preds = %32
  %37 = atomicrmw volatile add ptr %23, i32 -1 acq_rel, align 4
  br label %38

38:                                               ; preds = %36, %34
  %.0.i.i.i.i.i = phi i32 [ %26, %34 ], [ %37, %36 ]
  %39 = icmp eq i32 %.0.i.i.i.i.i, 1
  br i1 %39, label %40, label %_ZNSt10shared_ptrIN32pxrInternal_v0_24__pxrReserved__21HdContainerDataSourceEED2Ev.exit.i

40:                                               ; preds = %38
  %41 = load ptr, ptr %21, align 8
  %42 = getelementptr inbounds nuw i8, ptr %41, i64 16
  %43 = load ptr, ptr %42, align 8
  call void %43(ptr noundef nonnull align 8 dereferenceable(16) %21) #12
  %44 = getelementptr inbounds nuw i8, ptr %21, i64 12
  %45 = load i8, ptr @__libc_single_threaded, align 1
  %.not.i.i.i.i.i.i.i = icmp eq i8 %45, 0
  br i1 %.not.i.i.i.i.i.i.i, label %49, label %46

46:                                               ; preds = %40
  %47 = load i32, ptr %44, align 4
  %48 = add nsw i32 %47, -1
  store i32 %48, ptr %44, align 4
  br label %51

49:                                               ; preds = %40
  %50 = atomicrmw volatile add ptr %44, i32 -1 acq_rel, align 4
  br label %51

51:                                               ; preds = %49, %46
  %.0.i.i.i.i.i.i.i = phi i32 [ %47, %46 ], [ %50, %49 ]
  %52 = icmp eq i32 %.0.i.i.i.i.i.i.i, 1
  br i1 %52, label %_ZNSt16_Sp_counted_baseILN9__gnu_cxx12_Lock_policyE2EE24_M_release_last_use_coldEv.exit.sink.split.i.i.i.i.i, label %_ZNSt10shared_ptrIN32pxrInternal_v0_24__pxrReserved__21HdContainerDataSourceEED2Ev.exit.i

_ZNSt16_Sp_counted_baseILN9__gnu_cxx12_Lock_policyE2EE24_M_release_last_use_coldEv.exit.sink.split.i.i.i.i.i: ; preds = %51, %27
  %53 = load ptr, ptr %21, align 8
  %54 = getelementptr inbounds nuw i8, ptr %53, i64 24
  %55 = load ptr, ptr %54, align 8
  call void %55(ptr noundef nonnull align 8 dereferenceable(16) %21) #12
  br label %_ZNSt10shared_ptrIN32pxrInternal_v0_24__pxrReserved__21HdContainerDataSourceEED2Ev.exit.i

_ZNSt10shared_ptrIN32pxrInternal_v0_24__pxrReserved__21HdContainerDataSourceEED2Ev.exit.i: ; preds = %_ZNSt16_Sp_counted_baseILN9__gnu_cxx12_Lock_policyE2EE24_M_release_last_use_coldEv.exit.sink.split.i.i.i.i.i, %51, %38, %19
  %56 = load ptr, ptr %3, align 8
  %57 = ptrtoint ptr %56 to i64
  %58 = and i64 %57, 7
  %.not.i.i.i = icmp eq i64 %58, 0
  br i1 %.not.i.i.i, label %_ZN32pxrInternal_v0_24__pxrReserved__16HdSceneIndexPrimD2Ev.exit, label %59

59:                                               ; preds = %_ZNSt10shared_ptrIN32pxrInternal_v0_24__pxrReserved__21HdContainerDataSourceEED2Ev.exit.i
  %60 = and i64 %57, -8
  %61 = inttoptr i64 %60 to ptr
  %62 = atomicrmw sub ptr %61, i32 2 release, align 4
  br label %_ZN32pxrInternal_v0_24__pxrReserved__16HdSceneIndexPrimD2Ev.exit

_ZN32pxrInternal_v0_24__pxrReserved__16HdSceneIndexPrimD2Ev.exit: ; preds = %_ZNSt10shared_ptrIN32pxrInternal_v0_24__pxrReserved__21HdContainerDataSourceEED2Ev.exit.i, %59
  %63 = load i32, ptr %4, align 4
  %.not.i.i = icmp eq i32 %63, 0
  br i1 %.not.i.i, label %_ZN32pxrInternal_v0_24__pxrReserved__7SdfPathD2Ev.exit, label %64

64:                                               ; preds = %_ZN32pxrInternal_v0_24__pxrReserved__16HdSceneIndexPrimD2Ev.exit
  %65 = and i32 %63, 255
  %66 = lshr i32 %63, 8
  %67 = zext nneg i32 %65 to i64
  %68 = getelementptr inbounds nuw [257 x ptr], ptr @_ZN32pxrInternal_v0_24__pxrReserved__8Sdf_PoolINS_15Sdf_PathPrimTagELj24ELj8ELj16384EE13_regionStartsE, i64 0, i64 %67
  %69 = load ptr, ptr %68, align 8
  %70 = mul nuw nsw i32 %66, 24
  %71 = zext nneg i32 %70 to i64
  %72 = getelementptr inbounds nuw i8, ptr %69, i64 %71
  %73 = getelementptr inbounds nuw i8, ptr %72, i64 8
  %74 = atomicrmw sub ptr %73, i32 1 seq_cst, align 4
  %75 = and i32 %74, 2147483647
  %76 = icmp eq i32 %75, 1
  br i1 %76, label %77, label %_ZN32pxrInternal_v0_24__pxrReserved__7SdfPathD2Ev.exit

77:                                               ; preds = %64
  invoke void @_ZNK32pxrInternal_v0_24__pxrReserved__12Sdf_PathNode8_DestroyEv(ptr noundef nonnull align 8 dereferenceable(16) %72)
          to label %_ZN32pxrInternal_v0_24__pxrReserved__7SdfPathD2Ev.exit unwind label %78

78:                                               ; preds = %77
  %79 = landingpad { ptr, i32 }
          catch ptr null
  %80 = extractvalue { ptr, i32 } %79, 0
  call void @__clang_call_terminate(ptr %80) #13
  unreachable

81:                                               ; preds = %9
  %82 = landingpad { ptr, i32 }
          cleanup
  br label %85

83:                                               ; preds = %15
  %84 = landingpad { ptr, i32 }
          cleanup
  call void @_ZN32pxrInternal_v0_24__pxrReserved__16HdSceneIndexPrimD2Ev(ptr noundef nonnull align 8 dereferenceable(24) %3) #12
  br label %85

85:                                               ; preds = %83, %81
  %.pn = phi { ptr, i32 } [ %84, %83 ], [ %82, %81 ]
  call void @_ZN32pxrInternal_v0_24__pxrReserved__7SdfPathD2Ev(ptr noundef nonnull align 4 dereferenceable(8) %4) #12
  resume { ptr, i32 } %.pn

_ZN32pxrInternal_v0_24__pxrReserved__7SdfPathD2Ev.exit: ; preds = %77, %64, %_ZN32pxrInternal_v0_24__pxrReserved__16HdSceneIndexPrimD2Ev.exit, %8
  ret void
}